target datalayout = "e-m:e-p270:32:32-p271:32:32-p272:64:64-i64:64-i128:128-f80:128-n8:16:32:64-S128"
target triple = "x86_64-pc-linux-gnu"

%struct.Emb_Obj_t_ = type { i32, i32, i32, %union.anon, %union.anon.0, [0 x i32] }
%union.anon = type { i32 }
%union.anon.0 = type { i32 }
%struct.Emb_Man_t_ = type { ptr, ptr, ptr, i32, i32, i32, ptr, i32, i32, ptr, i32, i32, ptr, ptr, ptr, ptr }

@.str.24 = private unnamed_addr constant [4 x i8] c"1.g\00", align 1
@.str.25 = private unnamed_addr constant [2 x i8] c"w\00", align 1
@.str.26 = private unnamed_addr constant [7 x i8] c"%d %d\0A\00", align 1

; Function Attrs: inlinehint nounwind uwtable
define internal i32 @Emb_ObjSize(ptr noundef %0) #4 {
  %2 = alloca ptr, align 8
  store ptr %0, ptr %2, align 8, !tbaa !3
  %3 = load ptr, ptr %2, align 8, !tbaa !3
  %4 = load i32, ptr %3, align 4
  %5 = lshr i32 %4, 4
  %6 = zext i32 %5 to i64
  %7 = add i64 5, %6
  %8 = load ptr, ptr %2, align 8, !tbaa !3
  %9 = getelementptr inbounds nuw %struct.Emb_Obj_t_, ptr %8, i32 0, i32 1
  %10 = load i32, ptr %9, align 4, !tbaa !31
  %11 = zext i32 %10 to i64
  %12 = add i64 %7, %11
  %13 = trunc i64 %12 to i32
  ret i32 %13
}

; Function Attrs: inlinehint nounwind uwtable
define internal ptr @Emb_ObjFanout(ptr noundef %0, i32 noundef %1) #4 {
  %3 = alloca ptr, align 8
  %4 = alloca i32, align 4
  store ptr %0, ptr %3, align 8, !tbaa !3
  store i32 %1, ptr %4, align 4, !tbaa !12
  %5 = load ptr, ptr %3, align 8, !tbaa !3
  %6 = load ptr, ptr %3, align 8, !tbaa !3
  %7 = getelementptr inbounds nuw %struct.Emb_Obj_t_, ptr %6, i32 0, i32 5
  %8 = load ptr, ptr %3, align 8, !tbaa !3
  %9 = load i32, ptr %8, align 4
  %10 = lshr i32 %9, 4
  %11 = load i32, ptr %4, align 4, !tbaa !12
  %12 = add nsw i32 %10, %11
  %13 = sext i32 %12 to i64
  %14 = getelementptr inbounds [0 x i32], ptr %7, i64 0, i64 %13
  %15 = load i32, ptr %14, align 4, !tbaa !12
  %16 = sext i32 %15 to i64
  %17 = getelementptr inbounds i32, ptr %5, i64 %16
  ret ptr %17
}

; Function Attrs: inlinehint nounwind uwtable
define internal i32 @Emb_ObjIsTravIdCurrent(ptr noundef %0, ptr noundef %1) #4 {
  %3 = alloca ptr, align 8
  %4 = alloca ptr, align 8
  store ptr %0, ptr %3, align 8, !tbaa !15
  store ptr %1, ptr %4, align 8, !tbaa !3
  %5 = load ptr, ptr %4, align 8, !tbaa !3
  %6 = getelementptr inbounds nuw %struct.Emb_Obj_t_, ptr %5, i32 0, i32 3
  %7 = load i32, ptr %6, align 4, !tbaa !11
  %8 = load ptr, ptr %3, align 8, !tbaa !15
  %9 = getelementptr inbounds nuw %struct.Emb_Man_t_, ptr %8, i32 0, i32 5
  %10 = load i32, ptr %9, align 8, !tbaa !99
  %11 = icmp eq i32 %7, %10
  %12 = zext i1 %11 to i32
  ret i32 %12
}

; Function Attrs: inlinehint nounwind uwtable
define internal ptr @Emb_ManObj(ptr noundef %0, i32 noundef %1) #4 {
  %3 = alloca ptr, align 8
  %4 = alloca i32, align 4
  store ptr %0, ptr %3, align 8, !tbaa !15
  store i32 %1, ptr %4, align 4, !tbaa !12
  %5 = load ptr, ptr %3, align 8, !tbaa !15
  %6 = getelementptr inbounds nuw %struct.Emb_Man_t_, ptr %5, i32 0, i32 6
  %7 = load ptr, ptr %6, align 8, !tbaa !28
  %8 = load i32, ptr %4, align 4, !tbaa !12
  %9 = zext i32 %8 to i64
  %10 = getelementptr inbounds nuw i32, ptr %7, i64 %9
  ret ptr %10
}

; Function Attrs: nounwind uwtable
define void @Emb_DumpGraphIntoFile(ptr noundef %0) #0 {
  %2 = alloca ptr, align 8
  %3 = alloca ptr, align 8
  %4 = alloca ptr, align 8
  %5 = alloca ptr, align 8
  %6 = alloca i32, align 4
  %7 = alloca i32, align 4
  store ptr %0, ptr %2, align 8, !tbaa !15
  call void @llvm.lifetime.start.p0(i64 8, ptr %3) #12
  call void @llvm.lifetime.start.p0(i64 8, ptr %4) #12
  call void @llvm.lifetime.start.p0(i64 8, ptr %5) #12
  call void @llvm.lifetime.start.p0(i64 4, ptr %6) #12
  call void @llvm.lifetime.start.p0(i64 4, ptr %7) #12
  %8 = call noalias ptr @fopen(ptr noundef @.str.24, ptr noundef @.str.25)
  store ptr %8, ptr %3, align 8, !tbaa !105
  store i32 0, ptr %6, align 4, !tbaa !12
  br label %9

9:                                                ; preds = %55, %1
  %10 = load i32, ptr %6, align 4, !tbaa !12
  %11 = load ptr, ptr %2, align 8, !tbaa !15
  %12 = getelementptr inbounds nuw %struct.Emb_Man_t_, ptr %11, i32 0, i32 7
  %13 = load i32, ptr %12, align 8, !tbaa !27
  %14 = icmp slt i32 %10, %13
  br i1 %14, label %15, label %20

15:                                               ; preds = %9
  %16 = load ptr, ptr %2, align 8, !tbaa !15
  %17 = load i32, ptr %6, align 4, !tbaa !12
  %18 = call ptr @Emb_ManObj(ptr noundef %16, i32 noundef %17)
  store ptr %18, ptr %4, align 8, !tbaa !3
  %19 = icmp ne ptr %18, null
  br label %20

20:                                               ; preds = %15, %9
  %21 = phi i1 [ false, %9 ], [ %19, %15 ]
  br i1 %21, label %22, label %60

22:                                               ; preds = %20
  %23 = load ptr, ptr %2, align 8, !tbaa !15
  %24 = load ptr, ptr %4, align 8, !tbaa !3
  %25 = call i32 @Emb_ObjIsTravIdCurrent(ptr noundef %23, ptr noundef %24)
  %26 = icmp ne i32 %25, 0
  br i1 %26, label %28, label %27

27:                                               ; preds = %22
  br label %55

28:                                               ; preds = %22
  store i32 0, ptr %7, align 4, !tbaa !12
  br label %29

29:                                               ; preds = %51, %28
  %30 = load i32, ptr %7, align 4, !tbaa !12
  %31 = load ptr, ptr %4, align 8, !tbaa !3
  %32 = getelementptr inbounds nuw %struct.Emb_Obj_t_, ptr %31, i32 0, i32 1
  %33 = load i32, ptr %32, align 4, !tbaa !31
  %34 = icmp slt i32 %30, %33
  br i1 %34, label %35, label %40

35:                                               ; preds = %29
  %36 = load ptr, ptr %4, align 8, !tbaa !3
  %37 = load i32, ptr %7, align 4, !tbaa !12
  %38 = call ptr @Emb_ObjFanout(ptr noundef %36, i32 noundef %37)
  store ptr %38, ptr %5, align 8, !tbaa !3
  %39 = icmp ne ptr %38, null
  br label %40

40:                                               ; preds = %35, %29
  %41 = phi i1 [ false, %29 ], [ %39, %35 ]
  br i1 %41, label %42, label %54

42:                                               ; preds = %40
  %43 = load ptr, ptr %3, align 8, !tbaa !105
  %44 = load ptr, ptr %4, align 8, !tbaa !3
  %45 = getelementptr inbounds nuw %struct.Emb_Obj_t_, ptr %44, i32 0, i32 4
  %46 = load i32, ptr %45, align 4, !tbaa !11
  %47 = load ptr, ptr %5, align 8, !tbaa !3
  %48 = getelementptr inbounds nuw %struct.Emb_Obj_t_, ptr %47, i32 0, i32 4
  %49 = load i32, ptr %48, align 4, !tbaa !11
  %50 = call i32 (ptr, ptr, ...) @fprintf(ptr noundef %43, ptr noundef @.str.26, i32 noundef %46, i32 noundef %49) #12
  br label %51

51:                                               ; preds = %42
  %52 = load i32, ptr %7, align 4, !tbaa !12
  %53 = add nsw i32 %52, 1
  store i32 %53, ptr %7, align 4, !tbaa !12
  br label %29, !llvm.loop !118

54:                                               ; preds = %40
  br label %55

55:                                               ; preds = %54, %27
  %56 = load ptr, ptr %4, align 8, !tbaa !3
  %57 = call i32 @Emb_ObjSize(ptr noundef %56)
  %58 = load i32, ptr %6, align 4, !tbaa !12
  %59 = add nsw i32 %58, %57
  store i32 %59, ptr %6, align 4, !tbaa !12
  br label %9, !llvm.loop !119

60:                                               ; preds = %20
  %61 = load ptr, ptr %3, align 8, !tbaa !105
  %62 = call i32 @fclose(ptr noundef %61)
  call void @llvm.lifetime.end.p0(i64 4, ptr %7) #12
  call void @llvm.lifetime.end.p0(i64 4, ptr %6) #12
  call void @llvm.lifetime.end.p0(i64 8, ptr %5) #12
  call void @llvm.lifetime.end.p0(i64 8, ptr %4) #12
  call void @llvm.lifetime.end.p0(i64 8, ptr %3) #12
  ret void
}