; Function Attrs: nofree nounwind uwtable
define void @Emb_DumpGraphIntoFile(ptr noundef readonly captures(none) %0) local_unnamed_addr #8 {
  %2 = tail call noalias ptr @fopen(ptr noundef nonnull @.str.24, ptr noundef nonnull @.str.25)
  %3 = getelementptr i8, ptr %0, i64 40
  %4 = getelementptr inbounds nuw i8, ptr %0, i64 48
  %5 = load i32, ptr %4, align 8, !tbaa !46
  %6 = icmp sgt i32 %5, 0
  br i1 %6, label %.lr.ph30, label %.critedge

.lr.ph30:                                         ; preds = %1
  %7 = getelementptr i8, ptr %0, i64 32
  br label %8

8:                                                ; preds = %.lr.ph30, %.critedge2
  %9 = phi i32 [ %5, %.lr.ph30 ], [ %32, %.critedge2 ]
  %.01829 = phi i32 [ 0, %.lr.ph30 ], [ %35, %.critedge2 ]
  %.val = load ptr, ptr %3, align 8, !tbaa !47
  %10 = zext i32 %.01829 to i64
  %11 = getelementptr inbounds nuw i32, ptr %.val, i64 %10
  %.not = icmp eq ptr %.val, null
  br i1 %.not, label %.critedge, label %12

12:                                               ; preds = %8
  %.val25 = load i32, ptr %7, align 8, !tbaa !87
  %13 = getelementptr i8, ptr %11, i64 12
  %.val26 = load i32, ptr %13, align 4, !tbaa !8
  %.not27 = icmp eq i32 %.val26, %.val25
  %14 = getelementptr i8, ptr %11, i64 4
  br i1 %.not27, label %.preheader, label %..critedge2_crit_edge

..critedge2_crit_edge:                            ; preds = %12
  %.val24.pre = load i32, ptr %14, align 4, !tbaa !52
  br label %.critedge2

.preheader:                                       ; preds = %12
  %invariant.gep = getelementptr i8, ptr %11, i64 16
  %15 = load i32, ptr %14, align 4, !tbaa !52
  %16 = icmp sgt i32 %15, 0
  br i1 %16, label %.lr.ph, label %.critedge2

.lr.ph:                                           ; preds = %.preheader
  %17 = getelementptr inbounds nuw i8, ptr %11, i64 20
  br label %18

18:                                               ; preds = %.lr.ph, %18
  %.028 = phi i32 [ 0, %.lr.ph ], [ %29, %18 ]
  %19 = load i32, ptr %11, align 4
  %20 = lshr i32 %19, 4
  %21 = add nuw nsw i32 %20, %.028
  %22 = zext nneg i32 %21 to i64
  %23 = getelementptr inbounds nuw [0 x i32], ptr %17, i64 0, i64 %22
  %24 = load i32, ptr %23, align 4, !tbaa !9
  %25 = sext i32 %24 to i64
  %26 = load i32, ptr %invariant.gep, align 4, !tbaa !8
  %gep = getelementptr i32, ptr %invariant.gep, i64 %25
  %27 = load i32, ptr %gep, align 4, !tbaa !8
  %28 = tail call i32 (ptr, ptr, ...) @fprintf(ptr noundef %2, ptr noundef nonnull @.str.26, i32 noundef %26, i32 noundef %27) #27
  %29 = add nuw nsw i32 %.028, 1
  %30 = load i32, ptr %14, align 4, !tbaa !52
  %31 = icmp slt i32 %29, %30
  br i1 %31, label %18, label %.critedge2.loopexit, !llvm.loop !113

.critedge2.loopexit:                              ; preds = %18
  %.pre = load i32, ptr %4, align 8, !tbaa !46
  br label %.critedge2

.critedge2:                                       ; preds = %..critedge2_crit_edge, %.critedge2.loopexit, %.preheader
  %32 = phi i32 [ %9, %..critedge2_crit_edge ], [ %.pre, %.critedge2.loopexit ], [ %9, %.preheader ]
  %.val24 = phi i32 [ %.val24.pre, %..critedge2_crit_edge ], [ %30, %.critedge2.loopexit ], [ %15, %.preheader ]
  %.val23 = load i32, ptr %11, align 4
  %33 = lshr i32 %.val23, 4
  %narrow.i = add i32 %.01829, 5
  %34 = add i32 %narrow.i, %33
  %35 = add i32 %34, %.val24
  %36 = icmp slt i32 %35, %32
  br i1 %36, label %8, label %.critedge, !llvm.loop !114

.critedge:                                        ; preds = %8, %.critedge2, %1
  %37 = tail call i32 @fclose(ptr noundef %2)
  ret void
}